target datalayout = "e-m:e-p270:32:32-p271:32:32-p272:64:64-i64:64-i128:128-f80:128-n8:16:32:64-S128"
target triple = "x86_64-pc-linux-gnu"

%struct.XLogReaderState = type { %struct.XLogReaderRoutine, i64, ptr, i64, i64, i64, i64, i64, i64, i64, i64, ptr, ptr, i64, i8, ptr, ptr, ptr, ptr, ptr, i32, %struct.WALSegmentContext, %struct.WALOpenSegment, i32, i64, i32, i64, i32, i64, i32, ptr, i32, ptr, i8, i8 }
%struct.XLogReaderRoutine = type { ptr, ptr, ptr }
%struct.WALSegmentContext = type { [1024 x i8], i32 }
%struct.WALOpenSegment = type { i32, i64, i32 }
%struct.DecodedXLogRecord = type { i64, i8, ptr, i64, i64, %struct.XLogRecord, i16, i32, ptr, i32, i32, [0 x %struct.DecodedBkpBlock] }
%struct.XLogRecord = type { i32, i32, i64, i8, i8, i32 }
%struct.DecodedBkpBlock = type { i8, %struct.RelFileLocator, i32, i32, i32, i8, i8, i8, ptr, i16, i16, i16, i8, i8, ptr, i16, i16 }
%struct.RelFileLocator = type { i32, i32, i32 }
%struct.xl_btree_insert = type { i16 }
%struct.xl_btree_split = type { i32, i16, i16, i16 }
%struct.xl_btree_dedup = type { i16 }
%struct.xl_btree_vacuum = type { i16, i16 }
%struct.xl_btree_delete = type { i32, i16, i16, i8 }
%struct.xl_btree_mark_page_halfdead = type { i16, i32, i32, i32, i32 }
%struct.xl_btree_unlink_page = type { i32, i32, i32, %struct.FullTransactionId, i32, i32, i32 }
%struct.FullTransactionId = type { i64 }
%struct.xl_btree_newroot = type { i32, i32 }
%struct.xl_btree_reuse_page = type { %struct.RelFileLocator, i32, %struct.FullTransactionId, i8 }
%struct.xl_btree_metadata = type { i32, i32, i32, i32, i32, i32, i8 }

@.str = private unnamed_addr constant [8 x i8] c"off: %u\00", align 1
@.str.1 = private unnamed_addr constant [61 x i8] c"level: %u, firstrightoff: %d, newitemoff: %d, postingoff: %d\00", align 1
@.str.2 = private unnamed_addr constant [15 x i8] c"nintervals: %u\00", align 1
@.str.3 = private unnamed_addr constant [27 x i8] c"ndeleted: %u, nupdated: %u\00", align 1
@.str.4 = private unnamed_addr constant [74 x i8] c"snapshotConflictHorizon: %u, ndeleted: %u, nupdated: %u, isCatalogRel: %c\00", align 1
@.str.5 = private unnamed_addr constant [45 x i8] c"topparent: %u, leaf: %u, left: %u, right: %u\00", align 1
@.str.6 = private unnamed_addr constant [49 x i8] c"left: %u, right: %u, level: %u, safexid: %u:%u, \00", align 1
@.str.7 = private unnamed_addr constant [47 x i8] c"leafleft: %u, leafright: %u, leaftopparent: %u\00", align 1
@.str.8 = private unnamed_addr constant [10 x i8] c"level: %u\00", align 1
@.str.9 = private unnamed_addr constant [64 x i8] c"rel: %u/%u/%u, snapshotConflictHorizon: %u:%u, isCatalogRel: %c\00", align 1
@.str.10 = private unnamed_addr constant [30 x i8] c"last_cleanup_num_delpages: %u\00", align 1

; Function Attrs: nounwind uwtable
define dso_local void @btree_desc(ptr noundef %0, ptr noundef %1) #0 {
  %3 = alloca ptr, align 8
  %4 = alloca ptr, align 8
  %5 = alloca ptr, align 8
  %6 = alloca i8, align 1
  %7 = alloca ptr, align 8
  %8 = alloca ptr, align 8
  %9 = alloca ptr, align 8
  %10 = alloca ptr, align 8
  %11 = alloca ptr, align 8
  %12 = alloca ptr, align 8
  %13 = alloca ptr, align 8
  %14 = alloca ptr, align 8
  %15 = alloca ptr, align 8
  %16 = alloca ptr, align 8
  store ptr %0, ptr %3, align 8
  store ptr %1, ptr %4, align 8
  call void @llvm.lifetime.start.p0(i64 8, ptr %5) #3
  %17 = load ptr, ptr %4, align 8
  %18 = getelementptr inbounds nuw %struct.XLogReaderState, ptr %17, i32 0, i32 11
  %19 = load ptr, ptr %18, align 8
  %20 = getelementptr inbounds nuw %struct.DecodedXLogRecord, ptr %19, i32 0, i32 8
  %21 = load ptr, ptr %20, align 8
  store ptr %21, ptr %5, align 8
  call void @llvm.lifetime.start.p0(i64 1, ptr %6) #3
  %22 = load ptr, ptr %4, align 8
  %23 = getelementptr inbounds nuw %struct.XLogReaderState, ptr %22, i32 0, i32 11
  %24 = load ptr, ptr %23, align 8
  %25 = getelementptr inbounds nuw %struct.DecodedXLogRecord, ptr %24, i32 0, i32 5
  %26 = getelementptr inbounds nuw %struct.XLogRecord, ptr %25, i32 0, i32 3
  %27 = load i8, ptr %26, align 8
  %28 = zext i8 %27 to i32
  %29 = and i32 %28, -16
  %30 = trunc i32 %29 to i8
  store i8 %30, ptr %6, align 1
  %31 = load i8, ptr %6, align 1
  %32 = zext i8 %31 to i32
  switch i32 %32, label %225 [
    i32 0, label %33
    i32 16, label %33
    i32 32, label %33
    i32 80, label %33
    i32 48, label %40
    i32 64, label %40
    i32 96, label %58
    i32 192, label %65
    i32 112, label %95
    i32 176, label %133
    i32 144, label %148
    i32 128, label %148
    i32 160, label %181
    i32 208, label %187
    i32 224, label %218
  ]

33:                                               ; preds = %2, %2, %2, %2
  call void @llvm.lifetime.start.p0(i64 8, ptr %7) #3
  %34 = load ptr, ptr %5, align 8
  store ptr %34, ptr %7, align 8
  %35 = load ptr, ptr %3, align 8
  %36 = load ptr, ptr %7, align 8
  %37 = getelementptr inbounds nuw %struct.xl_btree_insert, ptr %36, i32 0, i32 0
  %38 = load i16, ptr %37, align 2
  %39 = zext i16 %38 to i32
  call void (ptr, ptr, ...) @appendStringInfo(ptr noundef %35, ptr noundef @.str, i32 noundef %39)
  call void @llvm.lifetime.end.p0(i64 8, ptr %7) #3
  br label %225

40:                                               ; preds = %2, %2
  call void @llvm.lifetime.start.p0(i64 8, ptr %8) #3
  %41 = load ptr, ptr %5, align 8
  store ptr %41, ptr %8, align 8
  %42 = load ptr, ptr %3, align 8
  %43 = load ptr, ptr %8, align 8
  %44 = getelementptr inbounds nuw %struct.xl_btree_split, ptr %43, i32 0, i32 0
  %45 = load i32, ptr %44, align 4
  %46 = load ptr, ptr %8, align 8
  %47 = getelementptr inbounds nuw %struct.xl_btree_split, ptr %46, i32 0, i32 1
  %48 = load i16, ptr %47, align 4
  %49 = zext i16 %48 to i32
  %50 = load ptr, ptr %8, align 8
  %51 = getelementptr inbounds nuw %struct.xl_btree_split, ptr %50, i32 0, i32 2
  %52 = load i16, ptr %51, align 2
  %53 = zext i16 %52 to i32
  %54 = load ptr, ptr %8, align 8
  %55 = getelementptr inbounds nuw %struct.xl_btree_split, ptr %54, i32 0, i32 3
  %56 = load i16, ptr %55, align 4
  %57 = zext i16 %56 to i32
  call void (ptr, ptr, ...) @appendStringInfo(ptr noundef %42, ptr noundef @.str.1, i32 noundef %45, i32 noundef %49, i32 noundef %53, i32 noundef %57)
  call void @llvm.lifetime.end.p0(i64 8, ptr %8) #3
  br label %225

58:                                               ; preds = %2
  call void @llvm.lifetime.start.p0(i64 8, ptr %9) #3
  %59 = load ptr, ptr %5, align 8
  store ptr %59, ptr %9, align 8
  %60 = load ptr, ptr %3, align 8
  %61 = load ptr, ptr %9, align 8
  %62 = getelementptr inbounds nuw %struct.xl_btree_dedup, ptr %61, i32 0, i32 0
  %63 = load i16, ptr %62, align 2
  %64 = zext i16 %63 to i32
  call void (ptr, ptr, ...) @appendStringInfo(ptr noundef %60, ptr noundef @.str.2, i32 noundef %64)
  call void @llvm.lifetime.end.p0(i64 8, ptr %9) #3
  br label %225

65:                                               ; preds = %2
  call void @llvm.lifetime.start.p0(i64 8, ptr %10) #3
  %66 = load ptr, ptr %5, align 8
  store ptr %66, ptr %10, align 8
  %67 = load ptr, ptr %3, align 8
  %68 = load ptr, ptr %10, align 8
  %69 = getelementptr inbounds nuw %struct.xl_btree_vacuum, ptr %68, i32 0, i32 0
  %70 = load i16, ptr %69, align 2
  %71 = zext i16 %70 to i32
  %72 = load ptr, ptr %10, align 8
  %73 = getelementptr inbounds nuw %struct.xl_btree_vacuum, ptr %72, i32 0, i32 1
  %74 = load i16, ptr %73, align 2
  %75 = zext i16 %74 to i32
  call void (ptr, ptr, ...) @appendStringInfo(ptr noundef %67, ptr noundef @.str.3, i32 noundef %71, i32 noundef %75)
  %76 = load ptr, ptr %4, align 8
  %77 = getelementptr inbounds nuw %struct.XLogReaderState, ptr %76, i32 0, i32 11
  %78 = load ptr, ptr %77, align 8
  %79 = getelementptr inbounds nuw %struct.DecodedXLogRecord, ptr %78, i32 0, i32 11
  %80 = getelementptr inbounds [0 x %struct.DecodedBkpBlock], ptr %79, i64 0, i64 0
  %81 = getelementptr inbounds nuw %struct.DecodedBkpBlock, ptr %80, i32 0, i32 13
  %82 = load i8, ptr %81, align 1, !range !4, !noundef !5
  %83 = trunc i8 %82 to i1
  br i1 %83, label %84, label %94

84:                                               ; preds = %65
  %85 = load ptr, ptr %3, align 8
  %86 = load ptr, ptr %4, align 8
  %87 = call ptr @XLogRecGetBlockData(ptr noundef %86, i8 noundef zeroext 0, ptr noundef null)
  %88 = load ptr, ptr %10, align 8
  %89 = getelementptr inbounds nuw %struct.xl_btree_vacuum, ptr %88, i32 0, i32 0
  %90 = load i16, ptr %89, align 2
  %91 = load ptr, ptr %10, align 8
  %92 = getelementptr inbounds nuw %struct.xl_btree_vacuum, ptr %91, i32 0, i32 1
  %93 = load i16, ptr %92, align 2
  call void @delvacuum_desc(ptr noundef %85, ptr noundef %87, i16 noundef zeroext %90, i16 noundef zeroext %93)
  br label %94

94:                                               ; preds = %84, %65
  call void @llvm.lifetime.end.p0(i64 8, ptr %10) #3
  br label %225

95:                                               ; preds = %2
  call void @llvm.lifetime.start.p0(i64 8, ptr %11) #3
  %96 = load ptr, ptr %5, align 8
  store ptr %96, ptr %11, align 8
  %97 = load ptr, ptr %3, align 8
  %98 = load ptr, ptr %11, align 8
  %99 = getelementptr inbounds nuw %struct.xl_btree_delete, ptr %98, i32 0, i32 0
  %100 = load i32, ptr %99, align 4
  %101 = load ptr, ptr %11, align 8
  %102 = getelementptr inbounds nuw %struct.xl_btree_delete, ptr %101, i32 0, i32 1
  %103 = load i16, ptr %102, align 4
  %104 = zext i16 %103 to i32
  %105 = load ptr, ptr %11, align 8
  %106 = getelementptr inbounds nuw %struct.xl_btree_delete, ptr %105, i32 0, i32 2
  %107 = load i16, ptr %106, align 2
  %108 = zext i16 %107 to i32
  %109 = load ptr, ptr %11, align 8
  %110 = getelementptr inbounds nuw %struct.xl_btree_delete, ptr %109, i32 0, i32 3
  %111 = load i8, ptr %110, align 4, !range !4, !noundef !5
  %112 = trunc i8 %111 to i1
  %113 = select i1 %112, i32 84, i32 70
  call void (ptr, ptr, ...) @appendStringInfo(ptr noundef %97, ptr noundef @.str.4, i32 noundef %100, i32 noundef %104, i32 noundef %108, i32 noundef %113)
  %114 = load ptr, ptr %4, align 8
  %115 = getelementptr inbounds nuw %struct.XLogReaderState, ptr %114, i32 0, i32 11
  %116 = load ptr, ptr %115, align 8
  %117 = getelementptr inbounds nuw %struct.DecodedXLogRecord, ptr %116, i32 0, i32 11
  %118 = getelementptr inbounds [0 x %struct.DecodedBkpBlock], ptr %117, i64 0, i64 0
  %119 = getelementptr inbounds nuw %struct.DecodedBkpBlock, ptr %118, i32 0, i32 13
  %120 = load i8, ptr %119, align 1, !range !4, !noundef !5
  %121 = trunc i8 %120 to i1
  br i1 %121, label %122, label %132

122:                                              ; preds = %95
  %123 = load ptr, ptr %3, align 8
  %124 = load ptr, ptr %4, align 8
  %125 = call ptr @XLogRecGetBlockData(ptr noundef %124, i8 noundef zeroext 0, ptr noundef null)
  %126 = load ptr, ptr %11, align 8
  %127 = getelementptr inbounds nuw %struct.xl_btree_delete, ptr %126, i32 0, i32 1
  %128 = load i16, ptr %127, align 4
  %129 = load ptr, ptr %11, align 8
  %130 = getelementptr inbounds nuw %struct.xl_btree_delete, ptr %129, i32 0, i32 2
  %131 = load i16, ptr %130, align 2
  call void @delvacuum_desc(ptr noundef %123, ptr noundef %125, i16 noundef zeroext %128, i16 noundef zeroext %131)
  br label %132

132:                                              ; preds = %122, %95
  call void @llvm.lifetime.end.p0(i64 8, ptr %11) #3
  br label %225

133:                                              ; preds = %2
  call void @llvm.lifetime.start.p0(i64 8, ptr %12) #3
  %134 = load ptr, ptr %5, align 8
  store ptr %134, ptr %12, align 8
  %135 = load ptr, ptr %3, align 8
  %136 = load ptr, ptr %12, align 8
  %137 = getelementptr inbounds nuw %struct.xl_btree_mark_page_halfdead, ptr %136, i32 0, i32 4
  %138 = load i32, ptr %137, align 4
  %139 = load ptr, ptr %12, align 8
  %140 = getelementptr inbounds nuw %struct.xl_btree_mark_page_halfdead, ptr %139, i32 0, i32 1
  %141 = load i32, ptr %140, align 4
  %142 = load ptr, ptr %12, align 8
  %143 = getelementptr inbounds nuw %struct.xl_btree_mark_page_halfdead, ptr %142, i32 0, i32 2
  %144 = load i32, ptr %143, align 4
  %145 = load ptr, ptr %12, align 8
  %146 = getelementptr inbounds nuw %struct.xl_btree_mark_page_halfdead, ptr %145, i32 0, i32 3
  %147 = load i32, ptr %146, align 4
  call void (ptr, ptr, ...) @appendStringInfo(ptr noundef %135, ptr noundef @.str.5, i32 noundef %138, i32 noundef %141, i32 noundef %144, i32 noundef %147)
  call void @llvm.lifetime.end.p0(i64 8, ptr %12) #3
  br label %225

148:                                              ; preds = %2, %2
  call void @llvm.lifetime.start.p0(i64 8, ptr %13) #3
  %149 = load ptr, ptr %5, align 8
  store ptr %149, ptr %13, align 8
  %150 = load ptr, ptr %3, align 8
  %151 = load ptr, ptr %13, align 8
  %152 = getelementptr inbounds nuw %struct.xl_btree_unlink_page, ptr %151, i32 0, i32 0
  %153 = load i32, ptr %152, align 8
  %154 = load ptr, ptr %13, align 8
  %155 = getelementptr inbounds nuw %struct.xl_btree_unlink_page, ptr %154, i32 0, i32 1
  %156 = load i32, ptr %155, align 4
  %157 = load ptr, ptr %13, align 8
  %158 = getelementptr inbounds nuw %struct.xl_btree_unlink_page, ptr %157, i32 0, i32 2
  %159 = load i32, ptr %158, align 8
  %160 = load ptr, ptr %13, align 8
  %161 = getelementptr inbounds nuw %struct.xl_btree_unlink_page, ptr %160, i32 0, i32 3
  %162 = getelementptr inbounds nuw %struct.FullTransactionId, ptr %161, i32 0, i32 0
  %163 = load i64, ptr %162, align 8
  %164 = lshr i64 %163, 32
  %165 = trunc i64 %164 to i32
  %166 = load ptr, ptr %13, align 8
  %167 = getelementptr inbounds nuw %struct.xl_btree_unlink_page, ptr %166, i32 0, i32 3
  %168 = getelementptr inbounds nuw %struct.FullTransactionId, ptr %167, i32 0, i32 0
  %169 = load i64, ptr %168, align 8
  %170 = trunc i64 %169 to i32
  call void (ptr, ptr, ...) @appendStringInfo(ptr noundef %150, ptr noundef @.str.6, i32 noundef %153, i32 noundef %156, i32 noundef %159, i32 noundef %165, i32 noundef %170)
  %171 = load ptr, ptr %3, align 8
  %172 = load ptr, ptr %13, align 8
  %173 = getelementptr inbounds nuw %struct.xl_btree_unlink_page, ptr %172, i32 0, i32 4
  %174 = load i32, ptr %173, align 8
  %175 = load ptr, ptr %13, align 8
  %176 = getelementptr inbounds nuw %struct.xl_btree_unlink_page, ptr %175, i32 0, i32 5
  %177 = load i32, ptr %176, align 4
  %178 = load ptr, ptr %13, align 8
  %179 = getelementptr inbounds nuw %struct.xl_btree_unlink_page, ptr %178, i32 0, i32 6
  %180 = load i32, ptr %179, align 8
  call void (ptr, ptr, ...) @appendStringInfo(ptr noundef %171, ptr noundef @.str.7, i32 noundef %174, i32 noundef %177, i32 noundef %180)
  call void @llvm.lifetime.end.p0(i64 8, ptr %13) #3
  br label %225

181:                                              ; preds = %2
  call void @llvm.lifetime.start.p0(i64 8, ptr %14) #3
  %182 = load ptr, ptr %5, align 8
  store ptr %182, ptr %14, align 8
  %183 = load ptr, ptr %3, align 8
  %184 = load ptr, ptr %14, align 8
  %185 = getelementptr inbounds nuw %struct.xl_btree_newroot, ptr %184, i32 0, i32 1
  %186 = load i32, ptr %185, align 4
  call void (ptr, ptr, ...) @appendStringInfo(ptr noundef %183, ptr noundef @.str.8, i32 noundef %186)
  call void @llvm.lifetime.end.p0(i64 8, ptr %14) #3
  br label %225

187:                                              ; preds = %2
  call void @llvm.lifetime.start.p0(i64 8, ptr %15) #3
  %188 = load ptr, ptr %5, align 8
  store ptr %188, ptr %15, align 8
  %189 = load ptr, ptr %3, align 8
  %190 = load ptr, ptr %15, align 8
  %191 = getelementptr inbounds nuw %struct.xl_btree_reuse_page, ptr %190, i32 0, i32 0
  %192 = getelementptr inbounds nuw %struct.RelFileLocator, ptr %191, i32 0, i32 0
  %193 = load i32, ptr %192, align 8
  %194 = load ptr, ptr %15, align 8
  %195 = getelementptr inbounds nuw %struct.xl_btree_reuse_page, ptr %194, i32 0, i32 0
  %196 = getelementptr inbounds nuw %struct.RelFileLocator, ptr %195, i32 0, i32 1
  %197 = load i32, ptr %196, align 4
  %198 = load ptr, ptr %15, align 8
  %199 = getelementptr inbounds nuw %struct.xl_btree_reuse_page, ptr %198, i32 0, i32 0
  %200 = getelementptr inbounds nuw %struct.RelFileLocator, ptr %199, i32 0, i32 2
  %201 = load i32, ptr %200, align 8
  %202 = load ptr, ptr %15, align 8
  %203 = getelementptr inbounds nuw %struct.xl_btree_reuse_page, ptr %202, i32 0, i32 2
  %204 = getelementptr inbounds nuw %struct.FullTransactionId, ptr %203, i32 0, i32 0
  %205 = load i64, ptr %204, align 8
  %206 = lshr i64 %205, 32
  %207 = trunc i64 %206 to i32
  %208 = load ptr, ptr %15, align 8
  %209 = getelementptr inbounds nuw %struct.xl_btree_reuse_page, ptr %208, i32 0, i32 2
  %210 = getelementptr inbounds nuw %struct.FullTransactionId, ptr %209, i32 0, i32 0
  %211 = load i64, ptr %210, align 8
  %212 = trunc i64 %211 to i32
  %213 = load ptr, ptr %15, align 8
  %214 = getelementptr inbounds nuw %struct.xl_btree_reuse_page, ptr %213, i32 0, i32 3
  %215 = load i8, ptr %214, align 8, !range !4, !noundef !5
  %216 = trunc i8 %215 to i1
  %217 = select i1 %216, i32 84, i32 70
  call void (ptr, ptr, ...) @appendStringInfo(ptr noundef %189, ptr noundef @.str.9, i32 noundef %193, i32 noundef %197, i32 noundef %201, i32 noundef %207, i32 noundef %212, i32 noundef %217)
  call void @llvm.lifetime.end.p0(i64 8, ptr %15) #3
  br label %225

218:                                              ; preds = %2
  call void @llvm.lifetime.start.p0(i64 8, ptr %16) #3
  %219 = load ptr, ptr %4, align 8
  %220 = call ptr @XLogRecGetBlockData(ptr noundef %219, i8 noundef zeroext 0, ptr noundef null)
  store ptr %220, ptr %16, align 8
  %221 = load ptr, ptr %3, align 8
  %222 = load ptr, ptr %16, align 8
  %223 = getelementptr inbounds nuw %struct.xl_btree_metadata, ptr %222, i32 0, i32 5
  %224 = load i32, ptr %223, align 4
  call void (ptr, ptr, ...) @appendStringInfo(ptr noundef %221, ptr noundef @.str.10, i32 noundef %224)
  call void @llvm.lifetime.end.p0(i64 8, ptr %16) #3
  br label %225

225:                                              ; preds = %2, %218, %187, %181, %148, %133, %132, %94, %58, %40, %33
  call void @llvm.lifetime.end.p0(i64 1, ptr %6) #3
  call void @llvm.lifetime.end.p0(i64 8, ptr %5) #3
  ret void
}