; Function Attrs: nounwind uwtable
define dso_local void @btree_desc(ptr noundef %0, ptr noundef %1) local_unnamed_addr #0 {
  %3 = getelementptr inbounds nuw i8, ptr %1, i64 104
  %4 = load ptr, ptr %3, align 8
  %5 = getelementptr inbounds nuw i8, ptr %4, i64 72
  %6 = load ptr, ptr %5, align 8
  %7 = getelementptr inbounds nuw i8, ptr %4, i64 56
  %8 = load i8, ptr %7, align 8
  %9 = lshr i8 %8, 4
  switch i8 %9, label %default.unreachable [
    i8 0, label %10
    i8 1, label %10
    i8 2, label %10
    i8 5, label %10
    i8 3, label %13
    i8 4, label %13
    i8 6, label %24
    i8 12, label %27
    i8 7, label %41
    i8 11, label %61
    i8 9, label %70
    i8 8, label %70
    i8 10, label %87
    i8 13, label %90
    i8 14, label %105
    i8 15, label %109
  ]

10:                                               ; preds = %2, %2, %2, %2
  %11 = load i16, ptr %6, align 2
  %12 = zext i16 %11 to i32
  tail call void (ptr, ptr, ...) @appendStringInfo(ptr noundef %0, ptr noundef nonnull @.str, i32 noundef %12) #3
  br label %109

13:                                               ; preds = %2, %2
  %14 = load i32, ptr %6, align 4
  %15 = getelementptr inbounds nuw i8, ptr %6, i64 4
  %16 = load i16, ptr %15, align 4
  %17 = zext i16 %16 to i32
  %18 = getelementptr inbounds nuw i8, ptr %6, i64 6
  %19 = load i16, ptr %18, align 2
  %20 = zext i16 %19 to i32
  %21 = getelementptr inbounds nuw i8, ptr %6, i64 8
  %22 = load i16, ptr %21, align 4
  %23 = zext i16 %22 to i32
  tail call void (ptr, ptr, ...) @appendStringInfo(ptr noundef %0, ptr noundef nonnull @.str.1, i32 noundef %14, i32 noundef %17, i32 noundef %20, i32 noundef %23) #3
  br label %109

24:                                               ; preds = %2
  %25 = load i16, ptr %6, align 2
  %26 = zext i16 %25 to i32
  tail call void (ptr, ptr, ...) @appendStringInfo(ptr noundef %0, ptr noundef nonnull @.str.2, i32 noundef %26) #3
  br label %109

27:                                               ; preds = %2
  %28 = load i16, ptr %6, align 2
  %29 = zext i16 %28 to i32
  %30 = getelementptr inbounds nuw i8, ptr %6, i64 2
  %31 = load i16, ptr %30, align 2
  %32 = zext i16 %31 to i32
  tail call void (ptr, ptr, ...) @appendStringInfo(ptr noundef %0, ptr noundef nonnull @.str.3, i32 noundef %29, i32 noundef %32) #3
  %33 = load ptr, ptr %3, align 8
  %34 = getelementptr inbounds nuw i8, ptr %33, i64 135
  %35 = load i8, ptr %34, align 1, !range !4, !noundef !5
  %36 = trunc nuw i8 %35 to i1
  br i1 %36, label %37, label %109

37:                                               ; preds = %27
  %38 = tail call ptr @XLogRecGetBlockData(ptr noundef nonnull %1, i8 noundef zeroext 0, ptr noundef null) #3
  %39 = load i16, ptr %6, align 2
  %40 = load i16, ptr %30, align 2
  tail call fastcc void @delvacuum_desc(ptr noundef %0, ptr noundef %38, i16 noundef zeroext %39, i16 noundef zeroext %40)
  br label %109

41:                                               ; preds = %2
  %42 = load i32, ptr %6, align 4
  %43 = getelementptr inbounds nuw i8, ptr %6, i64 4
  %44 = load i16, ptr %43, align 4
  %45 = zext i16 %44 to i32
  %46 = getelementptr inbounds nuw i8, ptr %6, i64 6
  %47 = load i16, ptr %46, align 2
  %48 = zext i16 %47 to i32
  %49 = getelementptr inbounds nuw i8, ptr %6, i64 8
  %50 = load i8, ptr %49, align 4, !range !4, !noundef !5
  %51 = trunc nuw i8 %50 to i1
  %52 = select i1 %51, i32 84, i32 70
  tail call void (ptr, ptr, ...) @appendStringInfo(ptr noundef %0, ptr noundef nonnull @.str.4, i32 noundef %42, i32 noundef %45, i32 noundef %48, i32 noundef %52) #3
  %53 = load ptr, ptr %3, align 8
  %54 = getelementptr inbounds nuw i8, ptr %53, i64 135
  %55 = load i8, ptr %54, align 1, !range !4, !noundef !5
  %56 = trunc nuw i8 %55 to i1
  br i1 %56, label %57, label %109

57:                                               ; preds = %41
  %58 = tail call ptr @XLogRecGetBlockData(ptr noundef nonnull %1, i8 noundef zeroext 0, ptr noundef null) #3
  %59 = load i16, ptr %43, align 4
  %60 = load i16, ptr %46, align 2
  tail call fastcc void @delvacuum_desc(ptr noundef %0, ptr noundef %58, i16 noundef zeroext %59, i16 noundef zeroext %60)
  br label %109

61:                                               ; preds = %2
  %62 = getelementptr inbounds nuw i8, ptr %6, i64 16
  %63 = load i32, ptr %62, align 4
  %64 = getelementptr inbounds nuw i8, ptr %6, i64 4
  %65 = load i32, ptr %64, align 4
  %66 = getelementptr inbounds nuw i8, ptr %6, i64 8
  %67 = load i32, ptr %66, align 4
  %68 = getelementptr inbounds nuw i8, ptr %6, i64 12
  %69 = load i32, ptr %68, align 4
  tail call void (ptr, ptr, ...) @appendStringInfo(ptr noundef %0, ptr noundef nonnull @.str.5, i32 noundef %63, i32 noundef %65, i32 noundef %67, i32 noundef %69) #3
  br label %109

70:                                               ; preds = %2, %2
  %71 = load i32, ptr %6, align 8
  %72 = getelementptr inbounds nuw i8, ptr %6, i64 4
  %73 = load i32, ptr %72, align 4
  %74 = getelementptr inbounds nuw i8, ptr %6, i64 8
  %75 = load i32, ptr %74, align 8
  %76 = getelementptr inbounds nuw i8, ptr %6, i64 16
  %77 = load i64, ptr %76, align 8
  %78 = lshr i64 %77, 32
  %79 = trunc nuw i64 %78 to i32
  %80 = trunc i64 %77 to i32
  tail call void (ptr, ptr, ...) @appendStringInfo(ptr noundef %0, ptr noundef nonnull @.str.6, i32 noundef %71, i32 noundef %73, i32 noundef %75, i32 noundef %79, i32 noundef %80) #3
  %81 = getelementptr inbounds nuw i8, ptr %6, i64 24
  %82 = load i32, ptr %81, align 8
  %83 = getelementptr inbounds nuw i8, ptr %6, i64 28
  %84 = load i32, ptr %83, align 4
  %85 = getelementptr inbounds nuw i8, ptr %6, i64 32
  %86 = load i32, ptr %85, align 8
  tail call void (ptr, ptr, ...) @appendStringInfo(ptr noundef %0, ptr noundef nonnull @.str.7, i32 noundef %82, i32 noundef %84, i32 noundef %86) #3
  br label %109

87:                                               ; preds = %2
  %88 = getelementptr inbounds nuw i8, ptr %6, i64 4
  %89 = load i32, ptr %88, align 4
  tail call void (ptr, ptr, ...) @appendStringInfo(ptr noundef %0, ptr noundef nonnull @.str.8, i32 noundef %89) #3
  br label %109

90:                                               ; preds = %2
  %91 = load i32, ptr %6, align 8
  %92 = getelementptr inbounds nuw i8, ptr %6, i64 4
  %93 = load i32, ptr %92, align 4
  %94 = getelementptr inbounds nuw i8, ptr %6, i64 8
  %95 = load i32, ptr %94, align 8
  %96 = getelementptr inbounds nuw i8, ptr %6, i64 16
  %97 = load i64, ptr %96, align 8
  %98 = lshr i64 %97, 32
  %99 = trunc nuw i64 %98 to i32
  %100 = trunc i64 %97 to i32
  %101 = getelementptr inbounds nuw i8, ptr %6, i64 24
  %102 = load i8, ptr %101, align 8, !range !4, !noundef !5
  %103 = trunc nuw i8 %102 to i1
  %104 = select i1 %103, i32 84, i32 70
  tail call void (ptr, ptr, ...) @appendStringInfo(ptr noundef %0, ptr noundef nonnull @.str.9, i32 noundef %91, i32 noundef %93, i32 noundef %95, i32 noundef %99, i32 noundef %100, i32 noundef %104) #3
  br label %109

105:                                              ; preds = %2
  %106 = tail call ptr @XLogRecGetBlockData(ptr noundef nonnull %1, i8 noundef zeroext 0, ptr noundef null) #3
  %107 = getelementptr inbounds nuw i8, ptr %106, i64 20
  %108 = load i32, ptr %107, align 4
  tail call void (ptr, ptr, ...) @appendStringInfo(ptr noundef %0, ptr noundef nonnull @.str.10, i32 noundef %108) #3
  br label %109

default.unreachable:                              ; preds = %2
  unreachable

109:                                              ; preds = %41, %57, %27, %37, %2, %105, %90, %87, %70, %61, %24, %13, %10
  ret void
}